target datalayout = "e-m:e-p270:32:32-p271:32:32-p272:64:64-i64:64-i128:128-f80:128-n8:16:32:64-S128"
target triple = "x86_64-pc-linux-gnu"

%struct.ossl_init_settings_st = type { ptr, ptr, i64 }

; Function Attrs: nounwind uwtable
define void @OPENSSL_INIT_free(ptr noundef %0) #0 {
  %2 = alloca ptr, align 8
  store ptr %0, ptr %2, align 8, !tbaa !51
  %3 = load ptr, ptr %2, align 8, !tbaa !51
  %4 = icmp eq ptr %3, null
  br i1 %4, label %5, label %6

5:                                                ; preds = %1
  br label %14

6:                                                ; preds = %1
  %7 = load ptr, ptr %2, align 8, !tbaa !51
  %8 = getelementptr inbounds nuw %struct.ossl_init_settings_st, ptr %7, i32 0, i32 0
  %9 = load ptr, ptr %8, align 8, !tbaa !55
  call void @free(ptr noundef %9) #8
  %10 = load ptr, ptr %2, align 8, !tbaa !51
  %11 = getelementptr inbounds nuw %struct.ossl_init_settings_st, ptr %10, i32 0, i32 1
  %12 = load ptr, ptr %11, align 8, !tbaa !56
  call void @free(ptr noundef %12) #8
  %13 = load ptr, ptr %2, align 8, !tbaa !51
  call void @free(ptr noundef %13) #8
  br label %14

14:                                               ; preds = %6, %5
  ret void
}