; Function Attrs: mustprogress nounwind willreturn uwtable
define void @OPENSSL_INIT_free(ptr noundef captures(address_is_null) %0) local_unnamed_addr #8 {
  %2 = icmp eq ptr %0, null
  br i1 %2, label %7, label %3

3:                                                ; preds = %1
  %4 = load ptr, ptr %0, align 8, !tbaa !37
  tail call void @free(ptr noundef %4) #15
  %5 = getelementptr inbounds nuw i8, ptr %0, i64 8
  %6 = load ptr, ptr %5, align 8, !tbaa !38
  tail call void @free(ptr noundef %6) #15
  tail call void @free(ptr noundef nonnull %0) #15
  br label %7

7:                                                ; preds = %1, %3
  ret void
}